target datalayout = "e-m:e-p270:32:32-p271:32:32-p272:64:64-i64:64-i128:128-f80:128-n8:16:32:64-S128"
target triple = "x86_64-unknown-linux-gnu"

%"class.std::basic_istream" = type { ptr, i64, %"class.std::basic_ios" }
%"class.std::basic_ios" = type { %"class.std::ios_base", ptr, i8, i8, ptr, ptr, ptr, ptr }
%"class.std::ios_base" = type { ptr, i64, i64, i32, i32, i32, ptr, %"struct.std::ios_base::_Words", [8 x %"struct.std::ios_base::_Words"], i32, ptr, %"class.std::locale" }
%"struct.std::ios_base::_Words" = type { ptr, i64 }
%"class.std::locale" = type { ptr }
%"class.std::basic_ostream" = type { ptr, %"class.std::basic_ios" }
%class.veloxtpFlexLexer = type <{ %class.FlexLexer.base, i32, i32, [4 x i8], ptr, %"class.std::basic_istream", %"class.std::basic_ostream", i8, [3 x i8], i32, ptr, i32, i32, i32, [4 x i8], i64, i64, ptr, i32, [4 x i8], ptr, ptr, ptr, ptr, ptr, i32, i32, i32, i32, i32, i32, i32, [4 x i8] }>
%class.FlexLexer.base = type <{ ptr, ptr, i32, i32, i32 }>
%class.FlexLexer = type <{ ptr, ptr, i32, i32, i32, [4 x i8] }>
%struct.yy_buffer_state = type { ptr, ptr, ptr, i32, i32, i32, i32, i32, i32, i32, i32, i32 }

@.str.6 = private unnamed_addr constant [32 x i8] c"flex scanner push-back overflow\00", align 1

; Function Attrs: mustprogress uwtable
define void @_ZN16veloxtpFlexLexer7yyunputEiPc(ptr noundef nonnull align 8 dereferenceable(732) %this, i32 noundef %c, ptr noundef %yy_bp) #5 align 2 {
entry:
  %this.addr = alloca ptr, align 8
  %c.addr = alloca i32, align 4
  %yy_bp.addr = alloca ptr, align 8
  %yy_cp = alloca ptr, align 8
  %number_to_move = alloca i32, align 4
  %dest = alloca ptr, align 8
  %source = alloca ptr, align 8
  store ptr %this, ptr %this.addr, align 8
  store i32 %c, ptr %c.addr, align 4
  store ptr %yy_bp, ptr %yy_bp.addr, align 8
  %this1 = load ptr, ptr %this.addr, align 8
  %yy_c_buf_p = getelementptr inbounds %class.veloxtpFlexLexer, ptr %this1, i32 0, i32 10
  %0 = load ptr, ptr %yy_c_buf_p, align 8
  store ptr %0, ptr %yy_cp, align 8
  %yy_hold_char = getelementptr inbounds %class.veloxtpFlexLexer, ptr %this1, i32 0, i32 7
  %1 = load i8, ptr %yy_hold_char, align 8
  %2 = load ptr, ptr %yy_cp, align 8
  store i8 %1, ptr %2, align 1
  %3 = load ptr, ptr %yy_cp, align 8
  %yy_buffer_stack = getelementptr inbounds %class.veloxtpFlexLexer, ptr %this1, i32 0, i32 17
  %4 = load ptr, ptr %yy_buffer_stack, align 8
  %yy_buffer_stack_top = getelementptr inbounds %class.veloxtpFlexLexer, ptr %this1, i32 0, i32 15
  %5 = load i64, ptr %yy_buffer_stack_top, align 8
  %arrayidx = getelementptr inbounds ptr, ptr %4, i64 %5
  %6 = load ptr, ptr %arrayidx, align 8
  %yy_ch_buf = getelementptr inbounds %struct.yy_buffer_state, ptr %6, i32 0, i32 1
  %7 = load ptr, ptr %yy_ch_buf, align 8
  %add.ptr = getelementptr inbounds i8, ptr %7, i64 2
  %cmp = icmp ult ptr %3, %add.ptr
  br i1 %cmp, label %if.then, label %if.end46

if.then:                                          ; preds = %entry
  %yy_n_chars = getelementptr inbounds %class.veloxtpFlexLexer, ptr %this1, i32 0, i32 9
  %8 = load i32, ptr %yy_n_chars, align 4
  %add = add nsw i32 %8, 2
  store i32 %add, ptr %number_to_move, align 4
  %yy_buffer_stack2 = getelementptr inbounds %class.veloxtpFlexLexer, ptr %this1, i32 0, i32 17
  %9 = load ptr, ptr %yy_buffer_stack2, align 8
  %yy_buffer_stack_top3 = getelementptr inbounds %class.veloxtpFlexLexer, ptr %this1, i32 0, i32 15
  %10 = load i64, ptr %yy_buffer_stack_top3, align 8
  %arrayidx4 = getelementptr inbounds ptr, ptr %9, i64 %10
  %11 = load ptr, ptr %arrayidx4, align 8
  %yy_ch_buf5 = getelementptr inbounds %struct.yy_buffer_state, ptr %11, i32 0, i32 1
  %12 = load ptr, ptr %yy_ch_buf5, align 8
  %yy_buffer_stack6 = getelementptr inbounds %class.veloxtpFlexLexer, ptr %this1, i32 0, i32 17
  %13 = load ptr, ptr %yy_buffer_stack6, align 8
  %yy_buffer_stack_top7 = getelementptr inbounds %class.veloxtpFlexLexer, ptr %this1, i32 0, i32 15
  %14 = load i64, ptr %yy_buffer_stack_top7, align 8
  %arrayidx8 = getelementptr inbounds ptr, ptr %13, i64 %14
  %15 = load ptr, ptr %arrayidx8, align 8
  %yy_buf_size = getelementptr inbounds %struct.yy_buffer_state, ptr %15, i32 0, i32 3
  %16 = load i32, ptr %yy_buf_size, align 8
  %add9 = add nsw i32 %16, 2
  %idxprom = sext i32 %add9 to i64
  %arrayidx10 = getelementptr inbounds i8, ptr %12, i64 %idxprom
  store ptr %arrayidx10, ptr %dest, align 8
  %yy_buffer_stack11 = getelementptr inbounds %class.veloxtpFlexLexer, ptr %this1, i32 0, i32 17
  %17 = load ptr, ptr %yy_buffer_stack11, align 8
  %yy_buffer_stack_top12 = getelementptr inbounds %class.veloxtpFlexLexer, ptr %this1, i32 0, i32 15
  %18 = load i64, ptr %yy_buffer_stack_top12, align 8
  %arrayidx13 = getelementptr inbounds ptr, ptr %17, i64 %18
  %19 = load ptr, ptr %arrayidx13, align 8
  %yy_ch_buf14 = getelementptr inbounds %struct.yy_buffer_state, ptr %19, i32 0, i32 1
  %20 = load ptr, ptr %yy_ch_buf14, align 8
  %21 = load i32, ptr %number_to_move, align 4
  %idxprom15 = sext i32 %21 to i64
  %arrayidx16 = getelementptr inbounds i8, ptr %20, i64 %idxprom15
  store ptr %arrayidx16, ptr %source, align 8
  br label %while.cond

while.cond:                                       ; preds = %while.body, %if.then
  %22 = load ptr, ptr %source, align 8
  %yy_buffer_stack17 = getelementptr inbounds %class.veloxtpFlexLexer, ptr %this1, i32 0, i32 17
  %23 = load ptr, ptr %yy_buffer_stack17, align 8
  %yy_buffer_stack_top18 = getelementptr inbounds %class.veloxtpFlexLexer, ptr %this1, i32 0, i32 15
  %24 = load i64, ptr %yy_buffer_stack_top18, align 8
  %arrayidx19 = getelementptr inbounds ptr, ptr %23, i64 %24
  %25 = load ptr, ptr %arrayidx19, align 8
  %yy_ch_buf20 = getelementptr inbounds %struct.yy_buffer_state, ptr %25, i32 0, i32 1
  %26 = load ptr, ptr %yy_ch_buf20, align 8
  %cmp21 = icmp ugt ptr %22, %26
  br i1 %cmp21, label %while.body, label %while.end

while.body:                                       ; preds = %while.cond
  %27 = load ptr, ptr %source, align 8
  %incdec.ptr = getelementptr inbounds i8, ptr %27, i32 -1
  store ptr %incdec.ptr, ptr %source, align 8
  %28 = load i8, ptr %incdec.ptr, align 1
  %29 = load ptr, ptr %dest, align 8
  %incdec.ptr22 = getelementptr inbounds i8, ptr %29, i32 -1
  store ptr %incdec.ptr22, ptr %dest, align 8
  store i8 %28, ptr %incdec.ptr22, align 1
  br label %while.cond, !llvm.loop !10

while.end:                                        ; preds = %while.cond
  %30 = load ptr, ptr %dest, align 8
  %31 = load ptr, ptr %source, align 8
  %sub.ptr.lhs.cast = ptrtoint ptr %30 to i64
  %sub.ptr.rhs.cast = ptrtoint ptr %31 to i64
  %sub.ptr.sub = sub i64 %sub.ptr.lhs.cast, %sub.ptr.rhs.cast
  %conv = trunc i64 %sub.ptr.sub to i32
  %32 = load ptr, ptr %yy_cp, align 8
  %idx.ext = sext i32 %conv to i64
  %add.ptr23 = getelementptr inbounds i8, ptr %32, i64 %idx.ext
  store ptr %add.ptr23, ptr %yy_cp, align 8
  %33 = load ptr, ptr %dest, align 8
  %34 = load ptr, ptr %source, align 8
  %sub.ptr.lhs.cast24 = ptrtoint ptr %33 to i64
  %sub.ptr.rhs.cast25 = ptrtoint ptr %34 to i64
  %sub.ptr.sub26 = sub i64 %sub.ptr.lhs.cast24, %sub.ptr.rhs.cast25
  %conv27 = trunc i64 %sub.ptr.sub26 to i32
  %35 = load ptr, ptr %yy_bp.addr, align 8
  %idx.ext28 = sext i32 %conv27 to i64
  %add.ptr29 = getelementptr inbounds i8, ptr %35, i64 %idx.ext28
  store ptr %add.ptr29, ptr %yy_bp.addr, align 8
  %yy_buffer_stack30 = getelementptr inbounds %class.veloxtpFlexLexer, ptr %this1, i32 0, i32 17
  %36 = load ptr, ptr %yy_buffer_stack30, align 8
  %yy_buffer_stack_top31 = getelementptr inbounds %class.veloxtpFlexLexer, ptr %this1, i32 0, i32 15
  %37 = load i64, ptr %yy_buffer_stack_top31, align 8
  %arrayidx32 = getelementptr inbounds ptr, ptr %36, i64 %37
  %38 = load ptr, ptr %arrayidx32, align 8
  %yy_buf_size33 = getelementptr inbounds %struct.yy_buffer_state, ptr %38, i32 0, i32 3
  %39 = load i32, ptr %yy_buf_size33, align 8
  %yy_n_chars34 = getelementptr inbounds %class.veloxtpFlexLexer, ptr %this1, i32 0, i32 9
  store i32 %39, ptr %yy_n_chars34, align 4
  %yy_buffer_stack35 = getelementptr inbounds %class.veloxtpFlexLexer, ptr %this1, i32 0, i32 17
  %40 = load ptr, ptr %yy_buffer_stack35, align 8
  %yy_buffer_stack_top36 = getelementptr inbounds %class.veloxtpFlexLexer, ptr %this1, i32 0, i32 15
  %41 = load i64, ptr %yy_buffer_stack_top36, align 8
  %arrayidx37 = getelementptr inbounds ptr, ptr %40, i64 %41
  %42 = load ptr, ptr %arrayidx37, align 8
  %yy_n_chars38 = getelementptr inbounds %struct.yy_buffer_state, ptr %42, i32 0, i32 4
  store i32 %39, ptr %yy_n_chars38, align 4
  %43 = load ptr, ptr %yy_cp, align 8
  %yy_buffer_stack39 = getelementptr inbounds %class.veloxtpFlexLexer, ptr %this1, i32 0, i32 17
  %44 = load ptr, ptr %yy_buffer_stack39, align 8
  %yy_buffer_stack_top40 = getelementptr inbounds %class.veloxtpFlexLexer, ptr %this1, i32 0, i32 15
  %45 = load i64, ptr %yy_buffer_stack_top40, align 8
  %arrayidx41 = getelementptr inbounds ptr, ptr %44, i64 %45
  %46 = load ptr, ptr %arrayidx41, align 8
  %yy_ch_buf42 = getelementptr inbounds %struct.yy_buffer_state, ptr %46, i32 0, i32 1
  %47 = load ptr, ptr %yy_ch_buf42, align 8
  %add.ptr43 = getelementptr inbounds i8, ptr %47, i64 2
  %cmp44 = icmp ult ptr %43, %add.ptr43
  br i1 %cmp44, label %if.then45, label %if.end

if.then45:                                        ; preds = %while.end
  %vtable = load ptr, ptr %this1, align 8
  %vfn = getelementptr inbounds ptr, ptr %vtable, i64 14
  %48 = load ptr, ptr %vfn, align 8
  call void %48(ptr noundef nonnull align 8 dereferenceable(732) %this1, ptr noundef @.str.6)
  br label %if.end

if.end:                                           ; preds = %if.then45, %while.end
  br label %if.end46

if.end46:                                         ; preds = %if.end, %entry
  %49 = load i32, ptr %c.addr, align 4
  %conv47 = trunc i32 %49 to i8
  %50 = load ptr, ptr %yy_cp, align 8
  %incdec.ptr48 = getelementptr inbounds i8, ptr %50, i32 -1
  store ptr %incdec.ptr48, ptr %yy_cp, align 8
  store i8 %conv47, ptr %incdec.ptr48, align 1
  %51 = load ptr, ptr %yy_bp.addr, align 8
  %yytext = getelementptr inbounds %class.FlexLexer, ptr %this1, i32 0, i32 1
  store ptr %51, ptr %yytext, align 8
  %52 = load ptr, ptr %yy_cp, align 8
  %53 = load i8, ptr %52, align 1
  %yy_hold_char49 = getelementptr inbounds %class.veloxtpFlexLexer, ptr %this1, i32 0, i32 7
  store i8 %53, ptr %yy_hold_char49, align 8
  %54 = load ptr, ptr %yy_cp, align 8
  %yy_c_buf_p50 = getelementptr inbounds %class.veloxtpFlexLexer, ptr %this1, i32 0, i32 10
  store ptr %54, ptr %yy_c_buf_p50, align 8
  ret void
}