; Function Attrs: mustprogress uwtable
define void @_ZN16veloxtpFlexLexer7yyunputEiPc(ptr noundef nonnull align 8 dereferenceable(732) %this, i32 noundef %c, ptr noundef %yy_bp) local_unnamed_addr #4 align 2 {
entry:
  %yy_c_buf_p = getelementptr inbounds i8, ptr %this, i64 608
  %0 = load ptr, ptr %yy_c_buf_p, align 8
  %yy_hold_char = getelementptr inbounds i8, ptr %this, i64 600
  %1 = load i8, ptr %yy_hold_char, align 8
  store i8 %1, ptr %0, align 1
  %yy_buffer_stack = getelementptr inbounds i8, ptr %this, i64 648
  %2 = load ptr, ptr %yy_buffer_stack, align 8
  %yy_buffer_stack_top = getelementptr inbounds i8, ptr %this, i64 632
  %3 = load i64, ptr %yy_buffer_stack_top, align 8
  %arrayidx = getelementptr inbounds ptr, ptr %2, i64 %3
  %4 = load ptr, ptr %arrayidx, align 8
  %yy_ch_buf = getelementptr inbounds i8, ptr %4, i64 8
  %5 = load ptr, ptr %yy_ch_buf, align 8
  %add.ptr = getelementptr inbounds i8, ptr %5, i64 2
  %cmp = icmp ult ptr %0, %add.ptr
  br i1 %cmp, label %if.then, label %if.end46

if.then:                                          ; preds = %entry
  %yy_n_chars = getelementptr inbounds i8, ptr %this, i64 604
  %6 = load i32, ptr %yy_n_chars, align 4
  %yy_buf_size = getelementptr inbounds i8, ptr %4, i64 24
  %7 = load i32, ptr %yy_buf_size, align 8
  %8 = sext i32 %7 to i64
  %9 = getelementptr i8, ptr %5, i64 %8
  %arrayidx10 = getelementptr i8, ptr %9, i64 2
  %10 = sext i32 %6 to i64
  %11 = getelementptr i8, ptr %5, i64 %10
  %arrayidx16 = getelementptr i8, ptr %11, i64 2
  %cmp2117 = icmp ugt ptr %arrayidx16, %5
  br i1 %cmp2117, label %while.body, label %while.end

while.body:                                       ; preds = %if.then, %while.body
  %source.019 = phi ptr [ %incdec.ptr, %while.body ], [ %arrayidx16, %if.then ]
  %dest.018 = phi ptr [ %incdec.ptr22, %while.body ], [ %arrayidx10, %if.then ]
  %incdec.ptr = getelementptr inbounds i8, ptr %source.019, i64 -1
  %12 = load i8, ptr %incdec.ptr, align 1
  %incdec.ptr22 = getelementptr inbounds i8, ptr %dest.018, i64 -1
  store i8 %12, ptr %incdec.ptr22, align 1
  %13 = load ptr, ptr %yy_buffer_stack, align 8
  %14 = load i64, ptr %yy_buffer_stack_top, align 8
  %arrayidx19 = getelementptr inbounds ptr, ptr %13, i64 %14
  %15 = load ptr, ptr %arrayidx19, align 8
  %yy_ch_buf20 = getelementptr inbounds i8, ptr %15, i64 8
  %16 = load ptr, ptr %yy_ch_buf20, align 8
  %cmp21 = icmp ugt ptr %incdec.ptr, %16
  br i1 %cmp21, label %while.body, label %while.end.loopexit, !llvm.loop !25

while.end.loopexit:                               ; preds = %while.body
  %yy_buf_size33.phi.trans.insert = getelementptr inbounds i8, ptr %15, i64 24
  %.pre = load i32, ptr %yy_buf_size33.phi.trans.insert, align 8
  br label %while.end

while.end:                                        ; preds = %while.end.loopexit, %if.then
  %17 = phi i32 [ %7, %if.then ], [ %.pre, %while.end.loopexit ]
  %.lcssa14 = phi i64 [ %3, %if.then ], [ %14, %while.end.loopexit ]
  %.lcssa13 = phi ptr [ %2, %if.then ], [ %13, %while.end.loopexit ]
  %dest.0.lcssa = phi ptr [ %arrayidx10, %if.then ], [ %incdec.ptr22, %while.end.loopexit ]
  %source.0.lcssa = phi ptr [ %arrayidx16, %if.then ], [ %incdec.ptr, %while.end.loopexit ]
  %arrayidx19.le = getelementptr inbounds ptr, ptr %.lcssa13, i64 %.lcssa14
  %sub.ptr.lhs.cast = ptrtoint ptr %dest.0.lcssa to i64
  %sub.ptr.rhs.cast = ptrtoint ptr %source.0.lcssa to i64
  %sub.ptr.sub = sub i64 %sub.ptr.lhs.cast, %sub.ptr.rhs.cast
  %sext = shl i64 %sub.ptr.sub, 32
  %idx.ext = ashr exact i64 %sext, 32
  %add.ptr23 = getelementptr inbounds i8, ptr %0, i64 %idx.ext
  %add.ptr29 = getelementptr inbounds i8, ptr %yy_bp, i64 %idx.ext
  store i32 %17, ptr %yy_n_chars, align 4
  %18 = load ptr, ptr %arrayidx19.le, align 8
  %yy_n_chars38 = getelementptr inbounds i8, ptr %18, i64 28
  store i32 %17, ptr %yy_n_chars38, align 4
  %19 = load ptr, ptr %yy_buffer_stack, align 8
  %20 = load i64, ptr %yy_buffer_stack_top, align 8
  %arrayidx41 = getelementptr inbounds ptr, ptr %19, i64 %20
  %21 = load ptr, ptr %arrayidx41, align 8
  %yy_ch_buf42 = getelementptr inbounds i8, ptr %21, i64 8
  %22 = load ptr, ptr %yy_ch_buf42, align 8
  %add.ptr43 = getelementptr inbounds i8, ptr %22, i64 2
  %cmp44 = icmp ult ptr %add.ptr23, %add.ptr43
  br i1 %cmp44, label %if.then45, label %if.end46

if.then45:                                        ; preds = %while.end
  %vtable = load ptr, ptr %this, align 8
  %vfn = getelementptr inbounds i8, ptr %vtable, i64 112
  %23 = load ptr, ptr %vfn, align 8
  tail call void %23(ptr noundef nonnull align 8 dereferenceable(732) %this, ptr noundef nonnull @.str.6)
  br label %if.end46

if.end46:                                         ; preds = %while.end, %if.then45, %entry
  %yy_cp.0 = phi ptr [ %add.ptr23, %if.then45 ], [ %add.ptr23, %while.end ], [ %0, %entry ]
  %yy_bp.addr.0 = phi ptr [ %add.ptr29, %if.then45 ], [ %add.ptr29, %while.end ], [ %yy_bp, %entry ]
  %conv47 = trunc i32 %c to i8
  %incdec.ptr48 = getelementptr inbounds i8, ptr %yy_cp.0, i64 -1
  store i8 %conv47, ptr %incdec.ptr48, align 1
  %yytext = getelementptr inbounds i8, ptr %this, i64 8
  store ptr %yy_bp.addr.0, ptr %yytext, align 8
  %24 = load i8, ptr %incdec.ptr48, align 1
  store i8 %24, ptr %yy_hold_char, align 8
  store ptr %incdec.ptr48, ptr %yy_c_buf_p, align 8
  ret void
}